target datalayout = "e-m:e-p270:32:32-p271:32:32-p272:64:64-i64:64-i128:128-f80:128-n8:16:32:64-S128"
target triple = "x86_64-unknown-linux-gnu"

%"class.icu_75::PossibleWord" = type { i32, i32, i32, i32, i32, [20 x i32], [20 x i32] }

; Function Attrs: mustprogress uwtable
define noundef i32 @_ZN6icu_7512PossibleWord12acceptMarkedEP5UText(ptr noundef nonnull align 4 dereferenceable(180) %this, ptr noundef %text) #0 align 2 {
entry:
  %this.addr = alloca ptr, align 8
  %text.addr = alloca ptr, align 8
  store ptr %this, ptr %this.addr, align 8
  store ptr %text, ptr %text.addr, align 8
  %this1 = load ptr, ptr %this.addr, align 8
  %0 = load ptr, ptr %text.addr, align 8
  %offset = getelementptr inbounds %"class.icu_75::PossibleWord", ptr %this1, i32 0, i32 2
  %1 = load i32, ptr %offset, align 4
  %cuLengths = getelementptr inbounds %"class.icu_75::PossibleWord", ptr %this1, i32 0, i32 5
  %mark = getelementptr inbounds %"class.icu_75::PossibleWord", ptr %this1, i32 0, i32 3
  %2 = load i32, ptr %mark, align 4
  %idxprom = sext i32 %2 to i64
  %arrayidx = getelementptr inbounds [20 x i32], ptr %cuLengths, i64 0, i64 %idxprom
  %3 = load i32, ptr %arrayidx, align 4
  %add = add nsw i32 %1, %3
  %conv = sext i32 %add to i64
  call void @utext_setNativeIndex_75(ptr noundef %0, i64 noundef %conv)
  %cuLengths2 = getelementptr inbounds %"class.icu_75::PossibleWord", ptr %this1, i32 0, i32 5
  %mark3 = getelementptr inbounds %"class.icu_75::PossibleWord", ptr %this1, i32 0, i32 3
  %4 = load i32, ptr %mark3, align 4
  %idxprom4 = sext i32 %4 to i64
  %arrayidx5 = getelementptr inbounds [20 x i32], ptr %cuLengths2, i64 0, i64 %idxprom4
  %5 = load i32, ptr %arrayidx5, align 4
  ret i32 %5
}