; Function Attrs: mustprogress uwtable
define noundef i32 @_ZN6icu_7512PossibleWord12acceptMarkedEP5UText(ptr nocapture noundef nonnull readonly align 4 dereferenceable(180) %this, ptr noundef %text) local_unnamed_addr #0 align 2 {
entry:
  %offset = getelementptr inbounds i8, ptr %this, i64 8
  %0 = load i32, ptr %offset, align 4
  %cuLengths = getelementptr inbounds i8, ptr %this, i64 20
  %mark = getelementptr inbounds i8, ptr %this, i64 12
  %1 = load i32, ptr %mark, align 4
  %idxprom = sext i32 %1 to i64
  %arrayidx = getelementptr inbounds [20 x i32], ptr %cuLengths, i64 0, i64 %idxprom
  %2 = load i32, ptr %arrayidx, align 4
  %add = add nsw i32 %2, %0
  %conv = sext i32 %add to i64
  tail call void @utext_setNativeIndex_75(ptr noundef %text, i64 noundef %conv)
  %3 = load i32, ptr %mark, align 4
  %idxprom4 = sext i32 %3 to i64
  %arrayidx5 = getelementptr inbounds [20 x i32], ptr %cuLengths, i64 0, i64 %idxprom4
  %4 = load i32, ptr %arrayidx5, align 4
  ret i32 %4
}